target datalayout = "e-m:e-p270:32:32-p271:32:32-p272:64:64-i64:64-i128:128-f80:128-n8:16:32:64-S128"
target triple = "x86_64-pc-linux-gnu"

@in_shutdown = internal global i32 0, align 4

; Function Attrs: nounwind uwtable
define internal void @fcgi_signal_handler(i32 noundef %0) #0 {
  %2 = alloca i32, align 4
  store i32 %0, ptr %2, align 4
  %3 = load i32, ptr %2, align 4
  %4 = icmp eq i32 %3, 10
  br i1 %4, label %8, label %5

5:                                                ; preds = %1
  %6 = load i32, ptr %2, align 4
  %7 = icmp eq i32 %6, 15
  br i1 %7, label %8, label %9

8:                                                ; preds = %5, %1
  store i32 1, ptr @in_shutdown, align 4
  br label %9

9:                                                ; preds = %8, %5
  ret void
}