; Function Attrs: mustprogress nofree norecurse nosync nounwind willreturn memory(write, argmem: none, inaccessiblemem: none) uwtable
define internal void @fcgi_signal_handler(i32 noundef %0) #0 {
  switch i32 %0, label %3 [
    i32 15, label %2
    i32 10, label %2
  ]

2:                                                ; preds = %1, %1
  store i32 1, ptr @in_shutdown, align 4
  br label %3

3:                                                ; preds = %1, %2
  ret void
}